; Function Attrs: nofree norecurse nosync nounwind memory(argmem: read) uwtable
define ptr @Str_MuxFindBranching(ptr noundef readonly %0, i32 noundef %1) local_unnamed_addr #6 {
  %3 = getelementptr inbounds nuw i8, ptr %0, i64 16
  %4 = sext i32 %1 to i64
  %5 = getelementptr inbounds [3 x %struct.Str_Edg_t_], ptr %3, i64 0, i64 %4
  %6 = load i32, ptr %5, align 4, !tbaa !136
  %7 = icmp slt i32 %6, 1
  br i1 %7, label %.loopexit, label %.sink.split

.sink.split:                                      ; preds = %2, %.sink.split.backedge
  %.116.sink21 = phi ptr [ %.116.sink21.be, %.sink.split.backedge ], [ %0, %2 ]
  %.sink18 = phi i32 [ %.sink18.be, %.sink.split.backedge ], [ %6, %2 ]
  %8 = load i32, ptr %.116.sink21, align 4, !tbaa !139
  %9 = sext i32 %8 to i64
  %10 = sub nsw i64 0, %9
  %11 = getelementptr inbounds %struct.Str_Mux_t_, ptr %.116.sink21, i64 %10
  %12 = zext nneg i32 %.sink18 to i64
  %13 = getelementptr inbounds nuw %struct.Str_Mux_t_, ptr %11, i64 %12
  br label %14

14:                                               ; preds = %.sink.split, %24
  %.0 = phi ptr [ %30, %24 ], [ %13, %.sink.split ]
  %15 = getelementptr inbounds nuw i8, ptr %.0, i64 16
  %16 = load i32, ptr %15, align 4, !tbaa !136
  %17 = icmp slt i32 %16, 1
  %18 = getelementptr inbounds nuw i8, ptr %.0, i64 32
  %19 = load i32, ptr %18, align 4, !tbaa !136
  br i1 %17, label %20, label %22

20:                                               ; preds = %14
  %21 = icmp slt i32 %19, 1
  br i1 %21, label %.loopexit, label %.sink.split.backedge

.sink.split.backedge:                             ; preds = %24, %20
  %.116.sink21.be = phi ptr [ %.0, %20 ], [ %30, %24 ]
  %.sink18.be = phi i32 [ %19, %20 ], [ %.pre, %24 ]
  br label %.sink.split

22:                                               ; preds = %14
  %23 = icmp sgt i32 %19, 0
  br i1 %23, label %.loopexit, label %24

24:                                               ; preds = %22
  %25 = load i32, ptr %.0, align 4, !tbaa !139
  %26 = sext i32 %25 to i64
  %27 = sub nsw i64 0, %26
  %28 = getelementptr inbounds %struct.Str_Mux_t_, ptr %.0, i64 %27
  %29 = zext nneg i32 %16 to i64
  %30 = getelementptr inbounds nuw %struct.Str_Mux_t_, ptr %28, i64 %29
  %.phi.trans.insert = getelementptr inbounds nuw i8, ptr %30, i64 32
  %.pre = load i32, ptr %.phi.trans.insert, align 4, !tbaa !136
  %31 = icmp sgt i32 %.pre, 0
  br i1 %31, label %.sink.split.backedge, label %14

.loopexit:                                        ; preds = %20, %22, %2
  %.013 = phi ptr [ null, %2 ], [ %.0, %22 ], [ null, %20 ]
  ret ptr %.013
}